target datalayout = "e-m:e-p270:32:32-p271:32:32-p272:64:64-i64:64-i128:128-f80:128-n8:16:32:64-S128"
target triple = "x86_64-unknown-linux-gnu"

%"struct.std::_Rb_tree_key_compare" = type { %"struct.std::less" }
%"struct.std::less" = type { i8 }
%"struct.std::_Rb_tree_header" = type { %"struct.std::_Rb_tree_node_base", i64 }
%"struct.std::_Rb_tree_node_base" = type { i32, ptr, ptr, ptr }
%"class.grpc_core::RefCountedPtr.219" = type { ptr }
%"class.grpc_core::(anonymous namespace)::OldWeightedRoundRobin::WeightedRoundRobinSubchannelData::OobWatcher" = type <{ %"class.grpc_core::OobBackendMetricWatcher", %"class.grpc_core::RefCountedPtr.219", float, [4 x i8] }>
%"class.grpc_core::OobBackendMetricWatcher" = type { ptr }
%"struct.grpc_core::BackendMetricData" = type { double, double, double, double, double, %"class.std::map.263", %"class.std::map.263", %"class.std::map.263" }
%"class.std::map.263" = type { %"class.std::_Rb_tree.264" }
%"class.std::_Rb_tree.264" = type { %"struct.std::_Rb_tree<std::basic_string_view<char>, std::pair<const std::basic_string_view<char>, double>, std::_Select1st<std::pair<const std::basic_string_view<char>, double>>, std::less<std::basic_string_view<char>>>::_Rb_tree_impl" }
%"struct.std::_Rb_tree<std::basic_string_view<char>, std::pair<const std::basic_string_view<char>, double>, std::_Select1st<std::pair<const std::basic_string_view<char>, double>>, std::less<std::basic_string_view<char>>>::_Rb_tree_impl" = type { %"struct.std::_Rb_tree_key_compare", %"struct.std::_Rb_tree_header" }

; Function Attrs: mustprogress nounwind uwtable
define internal noundef ptr @_ZNK9grpc_core13RefCountedPtrINS_12_GLOBAL__N_121OldWeightedRoundRobin13AddressWeightEEptEv(ptr noundef nonnull align 8 dereferenceable(8) %this) #5 align 2 {
entry:
  %this.addr = alloca ptr, align 8
  store ptr %this, ptr %this.addr, align 8
  %this1 = load ptr, ptr %this.addr, align 8
  %value_ = getelementptr inbounds %"class.grpc_core::RefCountedPtr.219", ptr %this1, i32 0, i32 0
  %0 = load ptr, ptr %value_, align 8
  ret ptr %0
}

; Function Attrs: mustprogress uwtable
define internal void @_ZN9grpc_core12_GLOBAL__N_121OldWeightedRoundRobin32WeightedRoundRobinSubchannelData10OobWatcher21OnBackendMetricReportERKNS_17BackendMetricDataE(ptr noundef nonnull align 8 dereferenceable(20) %this, ptr noundef nonnull align 8 dereferenceable(184) %backend_metric_data) unnamed_addr #4 align 2 {
entry:
  %this.addr = alloca ptr, align 8
  %backend_metric_data.addr = alloca ptr, align 8
  %utilization = alloca double, align 8
  store ptr %this, ptr %this.addr, align 8
  store ptr %backend_metric_data, ptr %backend_metric_data.addr, align 8
  %this1 = load ptr, ptr %this.addr, align 8
  %0 = load ptr, ptr %backend_metric_data.addr, align 8
  %application_utilization = getelementptr inbounds %"struct.grpc_core::BackendMetricData", ptr %0, i32 0, i32 2
  %1 = load double, ptr %application_utilization, align 8
  store double %1, ptr %utilization, align 8
  %2 = load double, ptr %utilization, align 8
  %cmp = fcmp ole double %2, 0.000000e+00
  br i1 %cmp, label %if.then, label %if.end

if.then:                                          ; preds = %entry
  %3 = load ptr, ptr %backend_metric_data.addr, align 8
  %cpu_utilization = getelementptr inbounds %"struct.grpc_core::BackendMetricData", ptr %3, i32 0, i32 0
  %4 = load double, ptr %cpu_utilization, align 8
  store double %4, ptr %utilization, align 8
  br label %if.end

if.end:                                           ; preds = %if.then, %entry
  %weight_ = getelementptr inbounds %"class.grpc_core::(anonymous namespace)::OldWeightedRoundRobin::WeightedRoundRobinSubchannelData::OobWatcher", ptr %this1, i32 0, i32 1
  %call = call noundef ptr @_ZNK9grpc_core13RefCountedPtrINS_12_GLOBAL__N_121OldWeightedRoundRobin13AddressWeightEEptEv(ptr noundef nonnull align 8 dereferenceable(8) %weight_)
  %5 = load ptr, ptr %backend_metric_data.addr, align 8
  %qps = getelementptr inbounds %"struct.grpc_core::BackendMetricData", ptr %5, i32 0, i32 3
  %6 = load double, ptr %qps, align 8
  %7 = load ptr, ptr %backend_metric_data.addr, align 8
  %eps = getelementptr inbounds %"struct.grpc_core::BackendMetricData", ptr %7, i32 0, i32 4
  %8 = load double, ptr %eps, align 8
  %9 = load double, ptr %utilization, align 8
  %error_utilization_penalty_ = getelementptr inbounds %"class.grpc_core::(anonymous namespace)::OldWeightedRoundRobin::WeightedRoundRobinSubchannelData::OobWatcher", ptr %this1, i32 0, i32 2
  %10 = load float, ptr %error_utilization_penalty_, align 8
  call void @_ZN9grpc_core12_GLOBAL__N_121OldWeightedRoundRobin13AddressWeight17MaybeUpdateWeightEdddf(ptr noundef nonnull align 8 dereferenceable(88) %call, double noundef %6, double noundef %8, double noundef %9, float noundef %10)
  ret void
}