; Function Attrs: mustprogress uwtable
define internal void @_ZN9grpc_core12_GLOBAL__N_121OldWeightedRoundRobin32WeightedRoundRobinSubchannelData10OobWatcher21OnBackendMetricReportERKNS_17BackendMetricDataE(ptr nocapture noundef nonnull readonly align 8 dereferenceable(20) %this, ptr nocapture noundef nonnull readonly align 8 dereferenceable(184) %backend_metric_data) unnamed_addr #3 align 2 {
entry:
  %application_utilization = getelementptr inbounds i8, ptr %backend_metric_data, i64 16
  %0 = load double, ptr %application_utilization, align 8
  %cmp = fcmp ugt double %0, 0.000000e+00
  %1 = load double, ptr %backend_metric_data, align 8
  %utilization.0 = select i1 %cmp, double %0, double %1
  %weight_ = getelementptr inbounds i8, ptr %this, i64 8
  %weight_.val = load ptr, ptr %weight_, align 8
  %qps = getelementptr inbounds i8, ptr %backend_metric_data, i64 24
  %2 = load double, ptr %qps, align 8
  %eps = getelementptr inbounds i8, ptr %backend_metric_data, i64 32
  %3 = load double, ptr %eps, align 8
  %error_utilization_penalty_ = getelementptr inbounds i8, ptr %this, i64 16
  %4 = load float, ptr %error_utilization_penalty_, align 8
  tail call fastcc void @_ZN9grpc_core12_GLOBAL__N_121OldWeightedRoundRobin13AddressWeight17MaybeUpdateWeightEdddf(ptr noundef nonnull align 8 dereferenceable(88) %weight_.val, double noundef %2, double noundef %3, double noundef %utilization.0, float noundef %4)
  ret void
}